target datalayout = "e-m:e-p270:32:32-p271:32:32-p272:64:64-i64:64-i128:128-f80:128-n8:16:32:64-S128"
target triple = "x86_64-pc-linux-gnu"

%struct.anon = type { i64, double, double }

; Function Attrs: nounwind uwtable
define dso_local i32 @heatres(double noundef %0, ptr noundef %1, ptr noundef %2, ptr noundef %3, ptr noundef %4) #0 {
  %6 = alloca double, align 8
  %7 = alloca ptr, align 8
  %8 = alloca ptr, align 8
  %9 = alloca ptr, align 8
  %10 = alloca ptr, align 8
  %11 = alloca i64, align 8
  %12 = alloca i64, align 8
  %13 = alloca i64, align 8
  %14 = alloca i64, align 8
  %15 = alloca i64, align 8
  %16 = alloca ptr, align 8
  %17 = alloca ptr, align 8
  %18 = alloca ptr, align 8
  %19 = alloca double, align 8
  %20 = alloca ptr, align 8
  store double %0, ptr %6, align 8, !tbaa !24
  store ptr %1, ptr %7, align 8, !tbaa !8
  store ptr %2, ptr %8, align 8, !tbaa !8
  store ptr %3, ptr %9, align 8, !tbaa !8
  store ptr %4, ptr %10, align 8, !tbaa !4
  call void @llvm.lifetime.start.p0(i64 8, ptr %11) #6
  call void @llvm.lifetime.start.p0(i64 8, ptr %12) #6
  call void @llvm.lifetime.start.p0(i64 8, ptr %13) #6
  call void @llvm.lifetime.start.p0(i64 8, ptr %14) #6
  call void @llvm.lifetime.start.p0(i64 8, ptr %15) #6
  call void @llvm.lifetime.start.p0(i64 8, ptr %16) #6
  call void @llvm.lifetime.start.p0(i64 8, ptr %17) #6
  call void @llvm.lifetime.start.p0(i64 8, ptr %18) #6
  call void @llvm.lifetime.start.p0(i64 8, ptr %19) #6
  call void @llvm.lifetime.start.p0(i64 8, ptr %20) #6
  %21 = load ptr, ptr %7, align 8, !tbaa !8
  %22 = call ptr @N_VGetArrayPointer(ptr noundef %21)
  store ptr %22, ptr %16, align 8, !tbaa !32
  %23 = load ptr, ptr %8, align 8, !tbaa !8
  %24 = call ptr @N_VGetArrayPointer(ptr noundef %23)
  store ptr %24, ptr %17, align 8, !tbaa !32
  %25 = load ptr, ptr %9, align 8, !tbaa !8
  %26 = call ptr @N_VGetArrayPointer(ptr noundef %25)
  store ptr %26, ptr %18, align 8, !tbaa !32
  %27 = load ptr, ptr %10, align 8, !tbaa !4
  store ptr %27, ptr %20, align 8, !tbaa !4
  %28 = load ptr, ptr %20, align 8, !tbaa !4
  %29 = getelementptr inbounds nuw %struct.anon, ptr %28, i32 0, i32 0
  %30 = load i64, ptr %29, align 8, !tbaa !18
  store i64 %30, ptr %11, align 8, !tbaa !25
  %31 = load ptr, ptr %20, align 8, !tbaa !4
  %32 = getelementptr inbounds nuw %struct.anon, ptr %31, i32 0, i32 2
  %33 = load double, ptr %32, align 8, !tbaa !23
  store double %33, ptr %19, align 8, !tbaa !24
  %34 = load ptr, ptr %7, align 8, !tbaa !8
  %35 = load ptr, ptr %9, align 8, !tbaa !8
  call void @N_VScale(double noundef 1.000000e+00, ptr noundef %34, ptr noundef %35)
  store i64 1, ptr %13, align 8, !tbaa !25
  br label %36

36:                                               ; preds = %98, %5
  %37 = load i64, ptr %13, align 8, !tbaa !25
  %38 = load i64, ptr %11, align 8, !tbaa !25
  %39 = sub nsw i64 %38, 1
  %40 = icmp slt i64 %37, %39
  br i1 %40, label %41, label %101

41:                                               ; preds = %36
  %42 = load i64, ptr %11, align 8, !tbaa !25
  %43 = load i64, ptr %13, align 8, !tbaa !25
  %44 = mul nsw i64 %42, %43
  store i64 %44, ptr %14, align 8, !tbaa !25
  store i64 1, ptr %12, align 8, !tbaa !25
  br label %45

45:                                               ; preds = %94, %41
  %46 = load i64, ptr %12, align 8, !tbaa !25
  %47 = load i64, ptr %11, align 8, !tbaa !25
  %48 = sub nsw i64 %47, 1
  %49 = icmp slt i64 %46, %48
  br i1 %49, label %50, label %97

50:                                               ; preds = %45
  %51 = load i64, ptr %14, align 8, !tbaa !25
  %52 = load i64, ptr %12, align 8, !tbaa !25
  %53 = add nsw i64 %51, %52
  store i64 %53, ptr %15, align 8, !tbaa !25
  %54 = load ptr, ptr %17, align 8, !tbaa !32
  %55 = load i64, ptr %15, align 8, !tbaa !25
  %56 = getelementptr inbounds double, ptr %54, i64 %55
  %57 = load double, ptr %56, align 8, !tbaa !24
  %58 = load double, ptr %19, align 8, !tbaa !24
  %59 = load ptr, ptr %16, align 8, !tbaa !32
  %60 = load i64, ptr %15, align 8, !tbaa !25
  %61 = sub nsw i64 %60, 1
  %62 = getelementptr inbounds double, ptr %59, i64 %61
  %63 = load double, ptr %62, align 8, !tbaa !24
  %64 = load ptr, ptr %16, align 8, !tbaa !32
  %65 = load i64, ptr %15, align 8, !tbaa !25
  %66 = add nsw i64 %65, 1
  %67 = getelementptr inbounds double, ptr %64, i64 %66
  %68 = load double, ptr %67, align 8, !tbaa !24
  %69 = fadd double %63, %68
  %70 = load ptr, ptr %16, align 8, !tbaa !32
  %71 = load i64, ptr %15, align 8, !tbaa !25
  %72 = load i64, ptr %11, align 8, !tbaa !25
  %73 = sub nsw i64 %71, %72
  %74 = getelementptr inbounds double, ptr %70, i64 %73
  %75 = load double, ptr %74, align 8, !tbaa !24
  %76 = fadd double %69, %75
  %77 = load ptr, ptr %16, align 8, !tbaa !32
  %78 = load i64, ptr %15, align 8, !tbaa !25
  %79 = load i64, ptr %11, align 8, !tbaa !25
  %80 = add nsw i64 %78, %79
  %81 = getelementptr inbounds double, ptr %77, i64 %80
  %82 = load double, ptr %81, align 8, !tbaa !24
  %83 = fadd double %76, %82
  %84 = load ptr, ptr %16, align 8, !tbaa !32
  %85 = load i64, ptr %15, align 8, !tbaa !25
  %86 = getelementptr inbounds double, ptr %84, i64 %85
  %87 = load double, ptr %86, align 8, !tbaa !24
  %88 = call double @llvm.fmuladd.f64(double -4.000000e+00, double %87, double %83)
  %89 = fneg double %58
  %90 = call double @llvm.fmuladd.f64(double %89, double %88, double %57)
  %91 = load ptr, ptr %18, align 8, !tbaa !32
  %92 = load i64, ptr %15, align 8, !tbaa !25
  %93 = getelementptr inbounds double, ptr %91, i64 %92
  store double %90, ptr %93, align 8, !tbaa !24
  br label %94

94:                                               ; preds = %50
  %95 = load i64, ptr %12, align 8, !tbaa !25
  %96 = add nsw i64 %95, 1
  store i64 %96, ptr %12, align 8, !tbaa !25
  br label %45

97:                                               ; preds = %45
  br label %98

98:                                               ; preds = %97
  %99 = load i64, ptr %13, align 8, !tbaa !25
  %100 = add nsw i64 %99, 1
  store i64 %100, ptr %13, align 8, !tbaa !25
  br label %36

101:                                              ; preds = %36
  call void @llvm.lifetime.end.p0(i64 8, ptr %20) #6
  call void @llvm.lifetime.end.p0(i64 8, ptr %19) #6
  call void @llvm.lifetime.end.p0(i64 8, ptr %18) #6
  call void @llvm.lifetime.end.p0(i64 8, ptr %17) #6
  call void @llvm.lifetime.end.p0(i64 8, ptr %16) #6
  call void @llvm.lifetime.end.p0(i64 8, ptr %15) #6
  call void @llvm.lifetime.end.p0(i64 8, ptr %14) #6
  call void @llvm.lifetime.end.p0(i64 8, ptr %13) #6
  call void @llvm.lifetime.end.p0(i64 8, ptr %12) #6
  call void @llvm.lifetime.end.p0(i64 8, ptr %11) #6
  ret i32 0
}

; Function Attrs: nounwind uwtable
define internal i32 @SetInitialProfile(ptr noundef %0, ptr noundef %1, ptr noundef %2, ptr noundef %3, ptr noundef %4) #0 {
  %6 = alloca ptr, align 8
  %7 = alloca ptr, align 8
  %8 = alloca ptr, align 8
  %9 = alloca ptr, align 8
  %10 = alloca ptr, align 8
  %11 = alloca double, align 8
  %12 = alloca double, align 8
  %13 = alloca ptr, align 8
  %14 = alloca ptr, align 8
  %15 = alloca ptr, align 8
  %16 = alloca i64, align 8
  %17 = alloca i64, align 8
  %18 = alloca i64, align 8
  %19 = alloca i64, align 8
  %20 = alloca i64, align 8
  %21 = alloca i64, align 8
  store ptr %0, ptr %6, align 8, !tbaa !4
  store ptr %1, ptr %7, align 8, !tbaa !8
  store ptr %2, ptr %8, align 8, !tbaa !8
  store ptr %3, ptr %9, align 8, !tbaa !8
  store ptr %4, ptr %10, align 8, !tbaa !8
  call void @llvm.lifetime.start.p0(i64 8, ptr %11) #6
  call void @llvm.lifetime.start.p0(i64 8, ptr %12) #6
  call void @llvm.lifetime.start.p0(i64 8, ptr %13) #6
  call void @llvm.lifetime.start.p0(i64 8, ptr %14) #6
  call void @llvm.lifetime.start.p0(i64 8, ptr %15) #6
  call void @llvm.lifetime.start.p0(i64 8, ptr %16) #6
  call void @llvm.lifetime.start.p0(i64 8, ptr %17) #6
  call void @llvm.lifetime.start.p0(i64 8, ptr %18) #6
  call void @llvm.lifetime.start.p0(i64 8, ptr %19) #6
  call void @llvm.lifetime.start.p0(i64 8, ptr %20) #6
  call void @llvm.lifetime.start.p0(i64 8, ptr %21) #6
  %22 = load ptr, ptr %6, align 8, !tbaa !4
  %23 = getelementptr inbounds nuw %struct.anon, ptr %22, i32 0, i32 0
  %24 = load i64, ptr %23, align 8, !tbaa !18
  store i64 %24, ptr %16, align 8, !tbaa !25
  %25 = load i64, ptr %16, align 8, !tbaa !25
  %26 = sub nsw i64 %25, 1
  store i64 %26, ptr %17, align 8, !tbaa !25
  %27 = load ptr, ptr %7, align 8, !tbaa !8
  %28 = call ptr @N_VGetArrayPointer(ptr noundef %27)
  store ptr %28, ptr %13, align 8, !tbaa !32
  %29 = load ptr, ptr %8, align 8, !tbaa !8
  %30 = call ptr @N_VGetArrayPointer(ptr noundef %29)
  store ptr %30, ptr %14, align 8, !tbaa !32
  %31 = load ptr, ptr %9, align 8, !tbaa !8
  %32 = call ptr @N_VGetArrayPointer(ptr noundef %31)
  store ptr %32, ptr %15, align 8, !tbaa !32
  %33 = load ptr, ptr %9, align 8, !tbaa !8
  call void @N_VConst(double noundef 1.000000e+00, ptr noundef %33)
  store i64 0, ptr %19, align 8, !tbaa !25
  br label %34

34:                                               ; preds = %79, %5
  %35 = load i64, ptr %19, align 8, !tbaa !25
  %36 = load i64, ptr %16, align 8, !tbaa !25
  %37 = icmp slt i64 %35, %36
  br i1 %37, label %38, label %82

38:                                               ; preds = %34
  %39 = load ptr, ptr %6, align 8, !tbaa !4
  %40 = getelementptr inbounds nuw %struct.anon, ptr %39, i32 0, i32 1
  %41 = load double, ptr %40, align 8, !tbaa !22
  %42 = load i64, ptr %19, align 8, !tbaa !25
  %43 = sitofp i64 %42 to double
  %44 = fmul double %41, %43
  store double %44, ptr %12, align 8, !tbaa !24
  %45 = load i64, ptr %16, align 8, !tbaa !25
  %46 = load i64, ptr %19, align 8, !tbaa !25
  %47 = mul nsw i64 %45, %46
  store i64 %47, ptr %20, align 8, !tbaa !25
  store i64 0, ptr %18, align 8, !tbaa !25
  br label %48

48:                                               ; preds = %75, %38
  %49 = load i64, ptr %18, align 8, !tbaa !25
  %50 = load i64, ptr %16, align 8, !tbaa !25
  %51 = icmp slt i64 %49, %50
  br i1 %51, label %52, label %78

52:                                               ; preds = %48
  %53 = load ptr, ptr %6, align 8, !tbaa !4
  %54 = getelementptr inbounds nuw %struct.anon, ptr %53, i32 0, i32 1
  %55 = load double, ptr %54, align 8, !tbaa !22
  %56 = load i64, ptr %18, align 8, !tbaa !25
  %57 = sitofp i64 %56 to double
  %58 = fmul double %55, %57
  store double %58, ptr %11, align 8, !tbaa !24
  %59 = load i64, ptr %20, align 8, !tbaa !25
  %60 = load i64, ptr %18, align 8, !tbaa !25
  %61 = add nsw i64 %59, %60
  store i64 %61, ptr %21, align 8, !tbaa !25
  %62 = load double, ptr %11, align 8, !tbaa !24
  %63 = fmul double 1.600000e+01, %62
  %64 = load double, ptr %11, align 8, !tbaa !24
  %65 = fsub double 1.000000e+00, %64
  %66 = fmul double %63, %65
  %67 = load double, ptr %12, align 8, !tbaa !24
  %68 = fmul double %66, %67
  %69 = load double, ptr %12, align 8, !tbaa !24
  %70 = fsub double 1.000000e+00, %69
  %71 = fmul double %68, %70
  %72 = load ptr, ptr %13, align 8, !tbaa !32
  %73 = load i64, ptr %21, align 8, !tbaa !25
  %74 = getelementptr inbounds double, ptr %72, i64 %73
  store double %71, ptr %74, align 8, !tbaa !24
  br label %75

75:                                               ; preds = %52
  %76 = load i64, ptr %18, align 8, !tbaa !25
  %77 = add nsw i64 %76, 1
  store i64 %77, ptr %18, align 8, !tbaa !25
  br label %48

78:                                               ; preds = %48
  br label %79

79:                                               ; preds = %78
  %80 = load i64, ptr %19, align 8, !tbaa !25
  %81 = add nsw i64 %80, 1
  store i64 %81, ptr %19, align 8, !tbaa !25
  br label %34

82:                                               ; preds = %34
  %83 = load ptr, ptr %8, align 8, !tbaa !8
  call void @N_VConst(double noundef 0.000000e+00, ptr noundef %83)
  %84 = load ptr, ptr %7, align 8, !tbaa !8
  %85 = load ptr, ptr %8, align 8, !tbaa !8
  %86 = load ptr, ptr %10, align 8, !tbaa !8
  %87 = load ptr, ptr %6, align 8, !tbaa !4
  %88 = call i32 @heatres(double noundef 0.000000e+00, ptr noundef %84, ptr noundef %85, ptr noundef %86, ptr noundef %87)
  %89 = load ptr, ptr %10, align 8, !tbaa !8
  %90 = load ptr, ptr %8, align 8, !tbaa !8
  call void @N_VScale(double noundef -1.000000e+00, ptr noundef %89, ptr noundef %90)
  store i64 0, ptr %19, align 8, !tbaa !25
  br label %91

91:                                               ; preds = %135, %82
  %92 = load i64, ptr %19, align 8, !tbaa !25
  %93 = load i64, ptr %16, align 8, !tbaa !25
  %94 = icmp slt i64 %92, %93
  br i1 %94, label %95, label %138

95:                                               ; preds = %91
  %96 = load i64, ptr %16, align 8, !tbaa !25
  %97 = load i64, ptr %19, align 8, !tbaa !25
  %98 = mul nsw i64 %96, %97
  store i64 %98, ptr %20, align 8, !tbaa !25
  store i64 0, ptr %18, align 8, !tbaa !25
  br label %99

99:                                               ; preds = %131, %95
  %100 = load i64, ptr %18, align 8, !tbaa !25
  %101 = load i64, ptr %16, align 8, !tbaa !25
  %102 = icmp slt i64 %100, %101
  br i1 %102, label %103, label %134

103:                                              ; preds = %99
  %104 = load i64, ptr %20, align 8, !tbaa !25
  %105 = load i64, ptr %18, align 8, !tbaa !25
  %106 = add nsw i64 %104, %105
  store i64 %106, ptr %21, align 8, !tbaa !25
  %107 = load i64, ptr %19, align 8, !tbaa !25
  %108 = icmp eq i64 %107, 0
  br i1 %108, label %120, label %109

109:                                              ; preds = %103
  %110 = load i64, ptr %19, align 8, !tbaa !25
  %111 = load i64, ptr %17, align 8, !tbaa !25
  %112 = icmp eq i64 %110, %111
  br i1 %112, label %120, label %113

113:                                              ; preds = %109
  %114 = load i64, ptr %18, align 8, !tbaa !25
  %115 = icmp eq i64 %114, 0
  br i1 %115, label %120, label %116

116:                                              ; preds = %113
  %117 = load i64, ptr %18, align 8, !tbaa !25
  %118 = load i64, ptr %17, align 8, !tbaa !25
  %119 = icmp eq i64 %117, %118
  br i1 %119, label %120, label %130

120:                                              ; preds = %116, %113, %109, %103
  %121 = load ptr, ptr %13, align 8, !tbaa !32
  %122 = load i64, ptr %21, align 8, !tbaa !25
  %123 = getelementptr inbounds double, ptr %121, i64 %122
  store double 1.000000e-01, ptr %123, align 8, !tbaa !24
  %124 = load ptr, ptr %14, align 8, !tbaa !32
  %125 = load i64, ptr %21, align 8, !tbaa !25
  %126 = getelementptr inbounds double, ptr %124, i64 %125
  store double 0.000000e+00, ptr %126, align 8, !tbaa !24
  %127 = load ptr, ptr %15, align 8, !tbaa !32
  %128 = load i64, ptr %21, align 8, !tbaa !25
  %129 = getelementptr inbounds double, ptr %127, i64 %128
  store double 0.000000e+00, ptr %129, align 8, !tbaa !24
  br label %130

130:                                              ; preds = %120, %116
  br label %131

131:                                              ; preds = %130
  %132 = load i64, ptr %18, align 8, !tbaa !25
  %133 = add nsw i64 %132, 1
  store i64 %133, ptr %18, align 8, !tbaa !25
  br label %99

134:                                              ; preds = %99
  br label %135

135:                                              ; preds = %134
  %136 = load i64, ptr %19, align 8, !tbaa !25
  %137 = add nsw i64 %136, 1
  store i64 %137, ptr %19, align 8, !tbaa !25
  br label %91

138:                                              ; preds = %91
  call void @llvm.lifetime.end.p0(i64 8, ptr %21) #6
  call void @llvm.lifetime.end.p0(i64 8, ptr %20) #6
  call void @llvm.lifetime.end.p0(i64 8, ptr %19) #6
  call void @llvm.lifetime.end.p0(i64 8, ptr %18) #6
  call void @llvm.lifetime.end.p0(i64 8, ptr %17) #6
  call void @llvm.lifetime.end.p0(i64 8, ptr %16) #6
  call void @llvm.lifetime.end.p0(i64 8, ptr %15) #6
  call void @llvm.lifetime.end.p0(i64 8, ptr %14) #6
  call void @llvm.lifetime.end.p0(i64 8, ptr %13) #6
  call void @llvm.lifetime.end.p0(i64 8, ptr %12) #6
  call void @llvm.lifetime.end.p0(i64 8, ptr %11) #6
  ret i32 0
}